target datalayout = "e-m:e-p270:32:32-p271:32:32-p272:64:64-i64:64-i128:128-f80:128-n8:16:32:64-S128"
target triple = "x86_64-pc-linux-gnu"

%union.pthread_mutex_t = type { %struct.__pthread_mutex_s }
%struct.__pthread_mutex_s = type { i32, i32, i32, i32, i32, i16, i16, %struct.__pthread_internal_list }
%struct.__pthread_internal_list = type { ptr, ptr }
%union.pthread_cond_t = type { %struct.__pthread_cond_s }
%struct.__pthread_cond_s = type { %union.__atomic_wide_counter, %union.__atomic_wide_counter, [2 x i32], [2 x i32], i32, i32, [2 x i32] }
%union.__atomic_wide_counter = type { i64 }
%struct.srun_job = type { %struct.slurm_step_id_msg, i32, i32, ptr, i32, i32, i32, i32, ptr, ptr, ptr, ptr, i32, i32, i32, i16, i16, i16, i16, i32, %union.pthread_mutex_t, %union.pthread_cond_t, i32, ptr, ptr, ptr, ptr, ptr, ptr, i32, i16, i16, i16, ptr, ptr, ptr, ptr, i32, ptr, i32, ptr }
%struct.slurm_step_id_msg = type { i64, i32, i32, i32 }
%struct.slurm_step_ctx_struct = type { i16, i32, ptr, ptr, ptr, i16 }
%struct.job_step_create_response_msg = type { i32, i32, i32, ptr, ptr, ptr, ptr, ptr, ptr, i16 }

; Function Attrs: nounwind uwtable
define dso_local ptr @launch_common_get_slurm_step_layout(ptr noundef %0) #0 {
  %2 = alloca ptr, align 8
  store ptr %0, ptr %2, align 8
  %3 = load ptr, ptr %2, align 8
  %4 = icmp ne ptr %3, null
  br i1 %4, label %5, label %10

5:                                                ; preds = %1
  %6 = load ptr, ptr %2, align 8
  %7 = getelementptr inbounds nuw %struct.srun_job, ptr %6, i32 0, i32 33
  %8 = load ptr, ptr %7, align 8
  %9 = icmp ne ptr %8, null
  br i1 %9, label %11, label %10

10:                                               ; preds = %5, %1
  br label %19

11:                                               ; preds = %5
  %12 = load ptr, ptr %2, align 8
  %13 = getelementptr inbounds nuw %struct.srun_job, ptr %12, i32 0, i32 33
  %14 = load ptr, ptr %13, align 8
  %15 = getelementptr inbounds nuw %struct.slurm_step_ctx_struct, ptr %14, i32 0, i32 3
  %16 = load ptr, ptr %15, align 8
  %17 = getelementptr inbounds nuw %struct.job_step_create_response_msg, ptr %16, i32 0, i32 4
  %18 = load ptr, ptr %17, align 8
  br label %19

19:                                               ; preds = %11, %10
  %20 = phi ptr [ null, %10 ], [ %18, %11 ]
  ret ptr %20
}