; Function Attrs: mustprogress nofree norecurse nosync nounwind willreturn memory(read, inaccessiblemem: none) uwtable
define dso_local ptr @launch_common_get_slurm_step_layout(ptr noundef readonly captures(address_is_null) %0) local_unnamed_addr #2 {
  %.not = icmp eq ptr %0, null
  br i1 %.not, label %10, label %2

2:                                                ; preds = %1
  %3 = getelementptr inbounds nuw i8, ptr %0, i64 272
  %4 = load ptr, ptr %3, align 8
  %.not4 = icmp eq ptr %4, null
  br i1 %.not4, label %10, label %5

5:                                                ; preds = %2
  %6 = getelementptr inbounds nuw i8, ptr %4, i64 16
  %7 = load ptr, ptr %6, align 8
  %8 = getelementptr inbounds nuw i8, ptr %7, i64 24
  %9 = load ptr, ptr %8, align 8
  br label %10

10:                                               ; preds = %1, %2, %5
  %11 = phi ptr [ %9, %5 ], [ null, %2 ], [ null, %1 ]
  ret ptr %11
}